; Function Attrs: nounwind uwtable
define noalias nonnull ptr @l_Lean_Meta_TransparencyMode_hash___boxed(ptr noundef %0) #1 {
  %2 = ptrtoint ptr %0 to i64
  %3 = lshr i64 %2, 1
  %4 = trunc i64 %3 to i8
  %5 = and i64 %2, 1
  %.not = icmp eq i64 %5, 0
  br i1 %.not, label %6, label %lean_dec.exit

6:                                                ; preds = %1
  %7 = load i32, ptr %0, align 4, !tbaa !4
  %8 = icmp sgt i32 %7, 1
  br i1 %8, label %9, label %11, !prof !9

9:                                                ; preds = %6
  %10 = add nsw i32 %7, -1
  store i32 %10, ptr %0, align 4, !tbaa !4
  br label %lean_dec.exit

11:                                               ; preds = %6
  %.not.i = icmp eq i32 %7, 0
  br i1 %.not.i, label %lean_dec.exit, label %12

12:                                               ; preds = %11
  tail call void @lean_dec_ref_cold(ptr noundef nonnull %0) #4
  br label %lean_dec.exit

lean_dec.exit:                                    ; preds = %12, %11, %9, %1
  %13 = icmp ult i8 %4, 3
  br i1 %13, label %switch.lookup, label %l_Lean_Meta_TransparencyMode_hash.exit

switch.lookup:                                    ; preds = %lean_dec.exit
  %14 = and i64 %3, 3
  %switch.gep = getelementptr inbounds nuw [3 x i64], ptr @switch.table.l_Lean_Meta_TransparencyMode_hash___boxed, i64 0, i64 %14
  %switch.load = load i64, ptr %switch.gep, align 8
  br label %l_Lean_Meta_TransparencyMode_hash.exit

l_Lean_Meta_TransparencyMode_hash.exit:           ; preds = %lean_dec.exit, %switch.lookup
  %.0.i = phi i64 [ %switch.load, %switch.lookup ], [ 17, %lean_dec.exit ]
  tail call void @lean_inc_heartbeat() #4
  %15 = tail call noalias ptr @mi_malloc_small(i64 noundef 16) #4
  %16 = icmp eq ptr %15, null
  br i1 %16, label %17, label %lean_box_uint64.exit

17:                                               ; preds = %l_Lean_Meta_TransparencyMode_hash.exit
  tail call void @lean_internal_panic_out_of_memory() #5
  unreachable

lean_box_uint64.exit:                             ; preds = %l_Lean_Meta_TransparencyMode_hash.exit
  %18 = getelementptr inbounds nuw i8, ptr %15, i64 4
  store i32 1, ptr %15, align 4, !tbaa !4
  store i32 16, ptr %18, align 4
  %19 = getelementptr inbounds nuw i8, ptr %15, i64 8
  store i64 %.0.i, ptr %19, align 8, !tbaa !10
  ret ptr %15
}